Certificate:
    Data:
        Version: 3 (0x2)
        Serial Number:
            6d:27:5d:41:c0:59:85:ad:58:b0:6f:0d:70:06:0c:33:a9:75:33:8f
        Signature Algorithm: sha256WithRSAEncryption
        Issuer: C = US, ST = Maryland, L = Hill, O = X, CN = X, emailAddress = X
        Validity
            Not Before: Nov 18 04:14:54 2023 GMT
            Not After : Feb  4 04:14:54 2032 GMT
        Subject: C = US, ST = Maryland, L = Hill, O = X, CN = X, emailAddress = X
        Subject Public Key Info:
            Public Key Algorithm: rsaEncryption
                Public-Key: (2048 bit)
                Modulus:
                    00:d6:58:ac:33:f9:da:ee:c9:bd:40:7b:22:7a:59:
                    1c:7a:27:e3:ed:6d:18:20:04:92:2f:1a:c6:87:e9:
                    ac:4d:a0:62:4d:39:f8:2f:e7:f0:c2:5b:08:cb:13:
                    99:d7:a6:78:7f:63:77:38:fa:53:87:4c:e0:32:5d:
                    f5:ec:2d:fd:0e:52:52:1a:db:62:3d:09:98:a4:d9:
                    5e:54:13:5c:a5:2e:99:2b:ab:c1:96:1f:9e:b1:83:
                    2c:76:4c:32:f7:f7:9b:b1:be:04:dd:f3:69:7f:63:
                    49:b5:58:ae:8f:11:44:8e:c5:4a:8a:83:d1:f9:5f:
                    42:f4:21:cc:0b:cb:69:ed:c5:98:80:a8:e8:ed:d9:
                    08:6c:37:e3:3e:8b:ab:c9:c1:53:c0:c1:04:57:4d:
                    d7:d9:d2:35:5b:c9:0a:d4:20:a5:fd:05:82:71:85:
                    88:6b:cc:b4:d3:1d:18:53:b5:f5:e3:64:12:43:d4:
                    6e:70:85:38:f2:25:0e:24:5b:ec:2c:d9:3e:ad:80:
                    2d:3d:9e:66:d4:e6:1d:1a:c7:f2:0d:23:f7:0c:19:
                    4c:84:4a:d8:50:91:16:c1:69:0a:27:25:d0:f6:24:
                    1a:25:02:37:7b:ee:30:b0:4d:6d:d2:a2:e0:b9:87:
                    85:97:46:24:84:09:56:4c:ce:31:9b:3f:51:86:46:
                    60:07
                Exponent: 65537 (0x10001)
        X509v3 extensions:
            X509v3 Subject Key Identifier: 
                B5:01:EF:65:A4:63:C4:D6:1C:53:9D:1A:E8:4D:90:D8:B4:8B:48:28
            X509v3 Authority Key Identifier: 
                B5:01:EF:65:A4:63:C4:D6:1C:53:9D:1A:E8:4D:90:D8:B4:8B:48:28
            X509v3 Basic Constraints: critical
                CA:TRUE
    Signature Algorithm: sha256WithRSAEncryption
    Signature Value:
        ca:30:80:82:50:9c:62:c8:ae:c5:62:3a:6b:74:85:9c:1c:b0:
        bc:8e:1c:83:6e:92:a3:8a:3f:cc:94:c5:1f:ee:3c:96:fb:71:
        98:74:40:4f:06:0e:de:ed:0e:9c:ff:a5:f4:f8:bb:b5:dc:ef:
        7e:74:78:40:6e:66:d5:fe:e6:1f:c0:6b:ff:cc:4d:22:6d:3f:
        d3:71:db:14:ab:a7:e2:e3:b1:96:23:b0:98:32:e8:2a:e2:20:
        f1:a0:79:ea:9d:9e:fc:37:23:cf:3d:ea:f8:5c:21:e7:7e:30:
        62:42:06:35:7f:64:fb:23:69:27:31:80:72:2e:dd:b2:8d:3b:
        9e:7f:69:79:2a:9a:43:6b:f3:a8:a9:5e:36:d2:4a:6b:36:c9:
        e9:69:bb:18:83:02:d6:8c:ae:9b:a9:dc:eb:db:8a:e6:18:38:
        16:ff:30:43:47:8e:39:9b:7a:95:30:b7:8b:b6:c2:42:ae:6c:
        5b:9d:31:23:81:21:ab:e9:78:83:81:6c:7c:59:03:0c:36:cc:
        16:6e:80:f2:db:d6:8a:1a:b9:d9:dd:83:ad:85:b0:40:16:3b:
        6b:d6:e3:8f:ee:c7:32:aa:52:33:0c:76:1b:81:7c:ea:eb:bd:
        db:17:1b:35:8c:81:df:10:ee:53:f5:b1:2f:53:f7:0a:cc:c8:
        50:0f:79:93
-----BEGIN CERTIFICATE-----
MIIDkzCCAnugAwIBAgIUbSddQcBZha1YsG8NcAYMM6l1M48wDQYJKoZIhvcNAQEL
BQAwWTELMAkGA1UEBhMCVVMxETAPBgNVBAgMCE1hcnlsYW5kMQ0wCwYDVQQHDARI
aWxsMQowCAYDVQQKDAFYMQowCAYDVQQDDAFYMRAwDgYJKoZIhvcNAQkBFgFYMB4X
DTIzMTExODA0MTQ1NFoXDTMyMDIwNDA0MTQ1NFowWTELMAkGA1UEBhMCVVMxETAP
BgNVBAgMCE1hcnlsYW5kMQ0wCwYDVQQHDARIaWxsMQowCAYDVQQKDAFYMQowCAYD
VQQDDAFYMRAwDgYJKoZIhvcNAQkBFgFYMIIBIjANBgkqhkiG9w0BAQEFAAOCAQ8A
MIIBCgKCAQEA1lisM/na7sm9QHsielkceifj7W0YIASSLxrGh+msTaBiTTn4L+fw
wlsIyxOZ16Z4f2N3OPpTh0zgMl317C39DlJSGttiPQmYpNleVBNcpS6ZK6vBlh+e
sYMsdkwy9/ebsb4E3fNpf2NJtViujxFEjsVKioPR+V9C9CHMC8tp7cWYgKjo7dkI
bDfjPourycFTwMEEV03X2dI1W8kK1CCl/QWCcYWIa8y00x0YU7X142QSQ9RucIU4
8iUOJFvsLNk+rYAtPZ5m1OYdGsfyDSP3DBlMhErYUJEWwWkKJyXQ9iQaJQI3e+4w
sE1t0qLguYeFl0YkhAlWTM4xmz9RhkZgBwIDAQABo1MwUTAdBgNVHQ4EFgQUtQHv
ZaRjxNYcU50a6E2Q2LSLSCgwHwYDVR0jBBgwFoAUtQHvZaRjxNYcU50a6E2Q2LSL
SCgwDwYDVR0TAQH/BAUwAwEB/zANBgkqhkiG9w0BAQsFAAOCAQEAyjCAglCcYsiu
xWI6a3SFnBywvI4cg26So4o/zJTFH+48lvtxmHRATwYO3u0OnP+l9Pi7tdzvfnR4
QG5m1f7mH8Br/8xNIm0/03HbFKun4uOxliOwmDLoKuIg8aB56p2e/Dcjzz3q+Fwh
534wYkIGNX9k+yNpJzGAci7dso07nn9peSqaQ2vzqKleNtJKazbJ6Wm7GIMC1oyu
m6nc69uK5hg4Fv8wQ0eOOZt6lTC3i7bCQq5sW50xI4Ehq+l4g4FsfFkDDDbMFm6A
8tvWihq52d2DrYWwQBY7a9bjj+7HMqpSMwx2G4F86uu92xcbNYyB3xDuU/WxL1P3
CszIUA95kw==
-----END CERTIFICATE-----
